target datalayout = "e-m:e-p270:32:32-p271:32:32-p272:64:64-i64:64-i128:128-f80:128-n8:16:32:64-S128"
target triple = "x86_64-pc-linux-gnu"

%struct.Abc_Ntk_t_ = type { i32, i32, ptr, ptr, ptr, ptr, ptr, ptr, ptr, ptr, ptr, ptr, ptr, [11 x i32], i32, i32, i32, i32, ptr, i32, ptr, ptr, i32, i32, i32, double, i32, %struct.Vec_Int_t_, ptr, ptr, ptr, ptr, ptr, float, i32, ptr, ptr, ptr, ptr, ptr, ptr, ptr, ptr, ptr, ptr, ptr, ptr, ptr, ptr, ptr, ptr, ptr, ptr, ptr, ptr, ptr, ptr }
%struct.Vec_Int_t_ = type { i32, i32, ptr }
%struct.Abc_Des_t_ = type { ptr, ptr, ptr, ptr, ptr, ptr, ptr }
%struct.timespec = type { i64, i64 }

@.str.13 = private unnamed_addr constant [10 x i8] c"_out.blif\00", align 1
@.str.14 = private unnamed_addr constant [40 x i8] c"Converting to Ptr:  Memory = %6.3f MB  \00", align 1
@.str.15 = private unnamed_addr constant [5 x i8] c"Time\00", align 1
@.str.16 = private unnamed_addr constant [37 x i8] c"Finished writing output file \22%s\22.  \00", align 1
@.str.48 = private unnamed_addr constant [5 x i8] c"%s =\00", align 1
@.str.49 = private unnamed_addr constant [11 x i8] c"%9.2f sec\0A\00", align 1

; Function Attrs: inlinehint nounwind uwtable
define internal void @Abc_PrintTime(i32 noundef %0, ptr noundef %1, i64 noundef %2) #2 {
  %4 = alloca i32, align 4
  %5 = alloca ptr, align 8
  %6 = alloca i64, align 8
  store i32 %0, ptr %4, align 4, !tbaa !36
  store ptr %1, ptr %5, align 8, !tbaa !46
  store i64 %2, ptr %6, align 8, !tbaa !27
  %7 = load ptr, ptr %5, align 8, !tbaa !46
  call void (i32, ptr, ...) @Abc_Print(i32 noundef 1, ptr noundef @.str.48, ptr noundef %7)
  %8 = load i64, ptr %6, align 8, !tbaa !27
  %9 = sitofp i64 %8 to double
  %10 = fmul double 1.000000e+00, %9
  %11 = fdiv double %10, 1.000000e+06
  call void (i32, ptr, ...) @Abc_Print(i32 noundef 1, ptr noundef @.str.49, double noundef %11)
  ret void
}

; Function Attrs: inlinehint nounwind uwtable
define internal i64 @Abc_Clock() #2 {
  %1 = alloca i64, align 8
  %2 = alloca %struct.timespec, align 8
  %3 = alloca i32, align 4
  %4 = alloca i64, align 8
  call void @llvm.lifetime.start.p0(i64 16, ptr %2) #11
  %5 = call i32 @clock_gettime(i32 noundef 1, ptr noundef %2) #11
  %6 = icmp slt i32 %5, 0
  br i1 %6, label %7, label %8

7:                                                ; preds = %0
  store i64 -1, ptr %1, align 8
  store i32 1, ptr %3, align 4
  br label %19

8:                                                ; preds = %0
  call void @llvm.lifetime.start.p0(i64 8, ptr %4) #11
  %9 = getelementptr inbounds nuw %struct.timespec, ptr %2, i32 0, i32 0
  %10 = load i64, ptr %9, align 8, !tbaa !115
  %11 = mul nsw i64 %10, 1000000
  store i64 %11, ptr %4, align 8, !tbaa !27
  %12 = getelementptr inbounds nuw %struct.timespec, ptr %2, i32 0, i32 1
  %13 = load i64, ptr %12, align 8, !tbaa !117
  %14 = mul nsw i64 %13, 1000000
  %15 = sdiv i64 %14, 1000000000
  %16 = load i64, ptr %4, align 8, !tbaa !27
  %17 = add nsw i64 %16, %15
  store i64 %17, ptr %4, align 8, !tbaa !27
  %18 = load i64, ptr %4, align 8, !tbaa !27
  store i64 %18, ptr %1, align 8
  store i32 1, ptr %3, align 4
  call void @llvm.lifetime.end.p0(i64 8, ptr %4) #11
  br label %19

19:                                               ; preds = %8, %7
  call void @llvm.lifetime.end.p0(i64 16, ptr %2) #11
  %20 = load i64, ptr %1, align 8
  ret i64 %20
}

; Function Attrs: nounwind uwtable
define void @Ptr_ManExperiment(ptr noundef %0) #0 {
  %2 = alloca ptr, align 8
  %3 = alloca i64, align 8
  %4 = alloca ptr, align 8
  %5 = alloca ptr, align 8
  store ptr %0, ptr %2, align 8, !tbaa !44
  call void @llvm.lifetime.start.p0(i64 8, ptr %3) #11
  %6 = call i64 @Abc_Clock()
  store i64 %6, ptr %3, align 8, !tbaa !27
  call void @llvm.lifetime.start.p0(i64 8, ptr %4) #11
  %7 = load ptr, ptr %2, align 8, !tbaa !44
  %8 = getelementptr inbounds nuw %struct.Abc_Ntk_t_, ptr %7, i32 0, i32 20
  %9 = load ptr, ptr %8, align 8, !tbaa !58
  %10 = getelementptr inbounds nuw %struct.Abc_Des_t_, ptr %9, i32 0, i32 0
  %11 = load ptr, ptr %10, align 8, !tbaa !62
  %12 = call ptr @Extra_FileNameGenericAppend(ptr noundef %11, ptr noundef @.str.13)
  store ptr %12, ptr %4, align 8, !tbaa !46
  call void @llvm.lifetime.start.p0(i64 8, ptr %5) #11
  %13 = load ptr, ptr %2, align 8, !tbaa !44
  %14 = call ptr @Ptr_AbcDeriveDes(ptr noundef %13)
  store ptr %14, ptr %5, align 8, !tbaa !39
  %15 = load ptr, ptr %5, align 8, !tbaa !39
  %16 = call i32 @Bac_PtrMemory(ptr noundef %15)
  %17 = sitofp i32 %16 to double
  %18 = fmul double 1.000000e+00, %17
  %19 = fdiv double %18, 0x4130000000000000
  %20 = call i32 (ptr, ...) @printf(ptr noundef @.str.14, double noundef %19)
  %21 = call i64 @Abc_Clock()
  %22 = load i64, ptr %3, align 8, !tbaa !27
  %23 = sub nsw i64 %21, %22
  call void @Abc_PrintTime(i32 noundef 1, ptr noundef @.str.15, i64 noundef %23)
  %24 = load ptr, ptr %4, align 8, !tbaa !46
  %25 = load ptr, ptr %5, align 8, !tbaa !39
  call void @Bac_PtrDumpBlif(ptr noundef %24, ptr noundef %25)
  %26 = load ptr, ptr %4, align 8, !tbaa !46
  %27 = call i32 (ptr, ...) @printf(ptr noundef @.str.16, ptr noundef %26)
  %28 = call i64 @Abc_Clock()
  %29 = load i64, ptr %3, align 8, !tbaa !27
  %30 = sub nsw i64 %28, %29
  call void @Abc_PrintTime(i32 noundef 1, ptr noundef @.str.15, i64 noundef %30)
  %31 = load ptr, ptr %5, align 8, !tbaa !39
  call void @Bac_PtrFree(ptr noundef %31)
  call void @llvm.lifetime.end.p0(i64 8, ptr %5) #11
  call void @llvm.lifetime.end.p0(i64 8, ptr %4) #11
  call void @llvm.lifetime.end.p0(i64 8, ptr %3) #11
  ret void
}