; Function Attrs: nounwind uwtable
define void @Ptr_ManExperiment(ptr noundef readonly captures(none) %0) local_unnamed_addr #0 {
  %2 = alloca %struct.timespec, align 8
  %3 = alloca %struct.timespec, align 8
  %4 = alloca %struct.timespec, align 8
  call void @llvm.lifetime.start.p0(i64 16, ptr nonnull %4) #19
  %5 = call i32 @clock_gettime(i32 noundef 1, ptr noundef nonnull %4) #19
  %6 = icmp slt i32 %5, 0
  br i1 %6, label %Abc_Clock.exit, label %7

7:                                                ; preds = %1
  %8 = load i64, ptr %4, align 8, !tbaa !59
  %9 = mul nsw i64 %8, 1000000
  %10 = getelementptr inbounds nuw i8, ptr %4, i64 8
  %11 = load i64, ptr %10, align 8, !tbaa !62
  %12 = sdiv i64 %11, 1000
  %13 = add nsw i64 %12, %9
  br label %Abc_Clock.exit

Abc_Clock.exit:                                   ; preds = %1, %7
  %.0.i = phi i64 [ %13, %7 ], [ -1, %1 ]
  call void @llvm.lifetime.end.p0(i64 16, ptr nonnull %4) #19
  %14 = getelementptr inbounds nuw i8, ptr %0, i64 176
  %15 = load ptr, ptr %14, align 8, !tbaa !53
  %16 = load ptr, ptr %15, align 8, !tbaa !57
  %17 = call ptr @Extra_FileNameGenericAppend(ptr noundef %16, ptr noundef nonnull @.str.13) #19
  %18 = call ptr @Ptr_AbcDeriveDes(ptr noundef %0)
  %19 = call i32 @Bac_PtrMemory(ptr noundef %18) #19
  %20 = sitofp i32 %19 to double
  %21 = fmul double %20, 0x3EB0000000000000
  %22 = call i32 (ptr, ...) @printf(ptr noundef nonnull dereferenceable(1) @.str.14, double noundef %21)
  call void @llvm.lifetime.start.p0(i64 16, ptr nonnull %3) #19
  %23 = call i32 @clock_gettime(i32 noundef 1, ptr noundef nonnull %3) #19
  %24 = icmp slt i32 %23, 0
  br i1 %24, label %Abc_Clock.exit9, label %25

25:                                               ; preds = %Abc_Clock.exit
  %26 = load i64, ptr %3, align 8, !tbaa !59
  %27 = mul nsw i64 %26, 1000000
  %28 = getelementptr inbounds nuw i8, ptr %3, i64 8
  %29 = load i64, ptr %28, align 8, !tbaa !62
  %30 = sdiv i64 %29, 1000
  %31 = add nsw i64 %30, %27
  br label %Abc_Clock.exit9

Abc_Clock.exit9:                                  ; preds = %Abc_Clock.exit, %25
  %.0.i8 = phi i64 [ %31, %25 ], [ -1, %Abc_Clock.exit ]
  call void @llvm.lifetime.end.p0(i64 16, ptr nonnull %3) #19
  %32 = sub nsw i64 %.0.i8, %.0.i
  call void (i32, ptr, ...) @Abc_Print(i32 poison, ptr noundef nonnull @.str.48, ptr noundef nonnull @.str.15)
  %33 = sitofp i64 %32 to double
  %34 = fdiv double %33, 1.000000e+06
  call void (i32, ptr, ...) @Abc_Print(i32 poison, ptr noundef nonnull @.str.49, double noundef %34)
  call void @Bac_PtrDumpBlif(ptr noundef %17, ptr noundef %18) #19
  %35 = call i32 (ptr, ...) @printf(ptr noundef nonnull dereferenceable(1) @.str.16, ptr noundef %17)
  call void @llvm.lifetime.start.p0(i64 16, ptr nonnull %2) #19
  %36 = call i32 @clock_gettime(i32 noundef 1, ptr noundef nonnull %2) #19
  %37 = icmp slt i32 %36, 0
  br i1 %37, label %Abc_Clock.exit11, label %38

38:                                               ; preds = %Abc_Clock.exit9
  %39 = load i64, ptr %2, align 8, !tbaa !59
  %40 = mul nsw i64 %39, 1000000
  %41 = getelementptr inbounds nuw i8, ptr %2, i64 8
  %42 = load i64, ptr %41, align 8, !tbaa !62
  %43 = sdiv i64 %42, 1000
  %44 = add nsw i64 %43, %40
  br label %Abc_Clock.exit11

Abc_Clock.exit11:                                 ; preds = %Abc_Clock.exit9, %38
  %.0.i10 = phi i64 [ %44, %38 ], [ -1, %Abc_Clock.exit9 ]
  call void @llvm.lifetime.end.p0(i64 16, ptr nonnull %2) #19
  %45 = sub nsw i64 %.0.i10, %.0.i
  call void (i32, ptr, ...) @Abc_Print(i32 poison, ptr noundef nonnull @.str.48, ptr noundef nonnull @.str.15)
  %46 = sitofp i64 %45 to double
  %47 = fdiv double %46, 1.000000e+06
  call void (i32, ptr, ...) @Abc_Print(i32 poison, ptr noundef nonnull @.str.49, double noundef %47)
  call void @Bac_PtrFree(ptr noundef %18) #19
  ret void
}